(dp0
Vengine
p1
Vpdflatex
p2
sVpackages
p3
c__builtin__
set
p4
((lp5
Vxcolor
p6
aVaaai20
p7
aVbooktabs
p8
aVcolor
p9
aVxspace
p10
aVamsthm
p11
aVarray
p12
aVsubcaption
p13
aVmakecell
p14
aVstmaryrd
p15
aVnicefrac
p16
aVamsmath
p17
aVmicrotype
p18
aVinputenc
p19
aVvarwidth
p20
aVenumitem
p21
aValgorithmic
p22
aVcourier
p23
aVbm
p24
aVmultirow
p25
aVamsfonts
p26
aVgraphicx
p27
aVtodonotes
p28
aVhyperref
p29
aVhelvet
p30
aValgorithm
p31
aVurl
p32
aVdsfont
p33
aVtimes
p34
aVcaption
p35
aVfontenc
p36
aVadjustbox
p37
atp38
Rp39
sVfiles_with_guttermarks
p40
g4
((lp41
V/Users/liva/Library/CloudStorage/iCloud Drive/Documents/Documents - Gray Matter/recherche/papers/2019/qalm_qmeans/reports/aaai_2020/./background.tex
p42
aV/Users/liva/Library/CloudStorage/iCloud Drive/Documents/Documents - Gray Matter/recherche/papers/2019/qalm_qmeans/reports/aaai_2020/./introduction.tex
p43
aV/Users/liva/Library/CloudStorage/iCloud Drive/Documents/Documents - Gray Matter/recherche/papers/2019/qalm_qmeans/reports/aaai_2020/introduction.tex
p44
aVaaai2020_qmeans.tex
p45
aV/Users/liva/Library/CloudStorage/iCloud Drive/Documents/Documents - Gray Matter/recherche/papers/2019/qalm_qmeans/reports/aaai_2020/applications.tex
p46
aV/Users/liva/Library/CloudStorage/iCloud Drive/Documents/Documents - Gray Matter/recherche/papers/2019/qalm_qmeans/reports/aaai_2020/app_palm4msa.tex
p47
aV/Users/liva/Library/CloudStorage/iCloud Drive/Documents/Documents - Gray Matter/recherche/papers/2019/qalm_qmeans/reports/aaai_2020/contributions.tex
p48
atp49
Rp50
sVsynctex
p51
I01
s.