(dp0
Vengine
p1
Vpdflatex
p2
sVpackages
p3
c__builtin__
set
p4
((lp5
tp6
Rp7
sVfiles_with_guttermarks
p8
g4
((lp9
S'applications.tex'
p10
aV/Users/liva/Library/CloudStorage/iCloud Drive/Documents/Documents - Gray Matter/recherche/papers/2019/qalm_qmeans/reports/aaai_2020/applications.tex
p11
aV/Users/liva/Library/CloudStorage/iCloud Drive/Documents/Documents - Gray Matter/recherche/papers/2019/qalm_qmeans/reports/aaai_2020/./applications.tex
p12
atp13
Rp14
sVsynctex
p15
I01
s.